; Function Attrs: mustprogress nounwind uwtable
define void @_ZN13IlmThread_3_46ThreadD2Ev(ptr noundef nonnull align 8 dereferenceable(16) initializes((0, 8)) %0) unnamed_addr #2 align 2 personality ptr @__gxx_personality_v0 {
  store ptr getelementptr inbounds nuw inrange(-16, 24) (i8, ptr @_ZTVN13IlmThread_3_46ThreadE, i64 16), ptr %0, align 8, !tbaa !3
  %2 = getelementptr inbounds nuw i8, ptr %0, i64 8
  %.sroa.0.0.copyload.i = load i64, ptr %2, align 8, !tbaa !10
  %.not = icmp eq i64 %.sroa.0.0.copyload.i, 0
  br i1 %.not, label %_ZNSt6threadD2Ev.exit, label %3

3:                                                ; preds = %1
  invoke void @_ZNSt6thread4joinEv(ptr noundef nonnull align 8 dereferenceable(8) %2)
          to label %4 unwind label %6

4:                                                ; preds = %3
  %.sroa.0.0.copyload.i.i.pr = load i64, ptr %2, align 8, !tbaa !10
  %.not.i = icmp eq i64 %.sroa.0.0.copyload.i.i.pr, 0
  br i1 %.not.i, label %_ZNSt6threadD2Ev.exit, label %5

5:                                                ; preds = %4
  tail call void @_ZSt9terminatev() #15
  unreachable

_ZNSt6threadD2Ev.exit:                            ; preds = %1, %4
  ret void

6:                                                ; preds = %3
  %7 = landingpad { ptr, i32 }
          catch ptr null
  %8 = extractvalue { ptr, i32 } %7, 0
  tail call void @__clang_call_terminate(ptr %8) #15
  unreachable
}